MODULE mac arm64 73781EDEBF5B34EC81B2749A0F1FA5FD0 sentry_example
FUNC d98 24 0 get_current_thread_id
FUNC dbc 78 0 log_thread_func
FUNC e34 6c 0 metric_thread_func
FUNC ea0 1d9c 0 main
FUNC 2c3c a0 0 has_arg
FUNC 2cdc 58 0 print_envelope
FUNC 2d34 50 0 before_send_callback
FUNC 2d84 34 0 discarding_before_send_callback
FUNC 2db8 24 0 on_crash_callback
FUNC 2ddc 34 0 discarding_on_crash_callback
FUNC 2e10 4c 0 before_transaction_callback
FUNC 2e5c 64 0 discarding_before_transaction_callback
FUNC 2ec0 70 0 before_send_log_callback
FUNC 2f30 78 0 discarding_before_send_log_callback
FUNC 2fa8 e8 0 traces_sampler_callback
FUNC 3090 e0 0 make_proxy_url
FUNC 3170 a4 0 test_logger_callback
FUNC 3214 70 0 before_send_metric_callback
FUNC 3284 30 0 discarding_before_send_metric_callback
FUNC 32b4 4c 0 before_breadcrumb_callback
FUNC 3300 30 0 discarding_before_breadcrumb_callback
FUNC 3330 98 0 get_arg_value
FUNC 33c8 d8 0 run_threads
FUNC 34a0 120 0 create_debug_crumb
FUNC 35c0 4c 0 trigger_oom
FUNC 360c 24 0 trigger_crash
FUNC 3630 50 0 trigger_stack_overflow
PUBLIC 0 0 _mh_execute_header
PUBLIC c000 0 invalid_mem
STACK CFI INIT d98 24 .cfa: sp 0 + .ra: x30
